(dp0
S'taghistory'
p1
c__builtin__
set
p2
((lp3
S'/Users/pallotron/Music/iTunes/iTunes Media/Music/Fleet Foxes/Sun Giant [EP]'
p4
aS'/Users/pallotron/Music/iTunes/iTunes Media/Music/Dan Arborise/Of tide & trail'
p5
aS'/Users/pallotron/Music/iTunes/iTunes Media/Music/The Black Keys/Rubber Factory'
p6
aS"/Users/pallotron/Music/iTunes/iTunes Media/Music/Medeski Martin and Wood/It's a Jungle in Here"
p7
aS'/Users/pallotron/Music/iTunes/iTunes Media/Music/Lotus Plaza/The Floodlight Collective'
p8
aS'/Users/pallotron/Music/iTunes/iTunes Media/Music/Jeff Buckley/Mystery White Boy'
p9
aS'/Users/pallotron/Music/iTunes/iTunes Media/Music/The Postal Service/Give Up'
p10
aS'/Users/pallotron/Music/iTunes/iTunes Media/Music/Fela Kuti/No Agreement'
p11
aS'/Users/pallotron/Music/iTunes/iTunes Media/Music/Radiohead/Go To Sleep (CD1)'
p12
aS'/Users/pallotron/Music/iTunes/iTunes Media/Music/Francesco De Gregori/Amore nel pomeriggio'
p13
aS'/Users/pallotron/Music/iTunes/iTunes Media/Music/Franco Battiato/Le stagioni del nostro amore - Cd 2'
p14
aS'/Users/pallotron/Music/iTunes/iTunes Media/Music/Elio e le Storie Tese/Del meglio del nostro meglio, Volume 1'
p15
aS'/Users/pallotron/Music/iTunes/iTunes Media/Music/Radiohead/Pablo Honey'
p16
aS'/Users/pallotron/Music/iTunes/iTunes Media/Music/The Dining Rooms/Ink'
p17
aS'/Users/pallotron/Music/iTunes/iTunes Media/Music/The Prodigy/More Music for the Jilted Generation'
p18
aS'/Users/pallotron/Music/iTunes/iTunes Media/Music/Pink Floyd/Atom Heart Mother'
p19
aS'/Users/pallotron/Music/iTunes/iTunes Media/Music/John Zorn/Naked City'
p20
aS'/Users/pallotron/Music/iTunes/iTunes Media/Music/Kaos One/kARMA'
p21
aS'/Users/pallotron/Music/iTunes/iTunes Media/Music/Radiohead/OK Computer'
p22
aS'/Users/pallotron/Music/iTunes/iTunes Media/Music/Infected Mushroom/Converting Vegetarians (CD1 -'
p23
aS'/Users/pallotron/Music/iTunes/iTunes Media/Music/Neffa/107 elementi'
p24
aS'/Users/pallotron/Music/iTunes/iTunes Media/Music/Donny Hathaway/Donny Hathaway'
p25
aS'/Users/pallotron/Music/iTunes/iTunes Media/Music/Elio e le Storie Tese/The los Sri Lanka Parakramabahu Brothers featuring Elio e le Storie Tese'
p26
aS'/Users/pallotron/Music/iTunes/iTunes Media/Music/Radiohead/2000-12-14 PRE-FM_ BBC Radio 1, UK'
p27
aS'/Users/pallotron/Music/iTunes/iTunes Media/Music/Miles Davis/Kind of Blue'
p28
aS'/Users/pallotron/Music/iTunes/iTunes Media/Music/Radiohead/Live @ Berlin 11-09-01'
p29
aS'/Users/pallotron/Music/iTunes/iTunes Media/Music/Anastasio, Trey/Plasma (1 of 2)'
p30
aS'/Users/pallotron/Music/iTunes/iTunes Media/Music/Compilations/Voli imprevedibili_ Tributo a Franco Battiato'
p31
aS'/Users/pallotron/Music/iTunes/iTunes Media/Music/Sigur Ros/Me\xc3\xb0 su\xc3\xb0 i\xcc\x81 eyrum vi\xc3\xb0 spilum endalaust'
p32
aS'/Users/pallotron/Music/iTunes/iTunes Media/Music/Pat Metheny Group/Travels'
p33
aS'/Users/pallotron/Music/iTunes/iTunes Media/Music/Uomini di mare/Sindrome di fine millennio'
p34
aS'/Users/pallotron/Music/iTunes/iTunes Media/Music/Fabrizio De Andre/In Concerto'
p35
aS'/Users/pallotron/Music/iTunes/iTunes Media/Music/R.E.M_/Lifes Rich Pageant'
p36
aS'/Users/pallotron/Music/iTunes/iTunes Media/Music/Nicola Conte/Jet Sounds'
p37
aS'/Users/pallotron/Music/iTunes/iTunes Media/Music/Infected Mushroom/Converting Vegetarians (CD2 -'
p38
aS'/Users/pallotron/Music/iTunes/iTunes Media/Music/Vinicio Capossela/Live in Volvo'
p39
aS'/Users/pallotron/Music/iTunes/iTunes Media/Music/Oneohtrix Point Never/Returnal'
p40
aS'/Users/pallotron/Music/iTunes/iTunes Media/Music/Elio e le Storie Tese/The Los Sri Lanka Parakramabah'
p41
aS'/Users/pallotron/Music/iTunes/iTunes Media/Music/Bonobo/Animal Magic'
p42
aS'/Users/pallotron/Music/iTunes/iTunes Media/Music/Intrusion/The Seduction of Silence'
p43
aS'/Users/pallotron/Music/iTunes/iTunes Media/Music/Franco Battiato/Giubbe rosse'
p44
aS'/Users/pallotron/Music/iTunes/iTunes Media/Music/Panda Bear/Person Pitch'
p45
aS'/Users/pallotron/Music/iTunes/iTunes Media/Music/Fabrizio De Andre/In direzione ostinata e contraria'
p46
aS'/Users/pallotron/Music/iTunes/iTunes Media/Music/Franco Battiato/La voce del padrone'
p47
aS'/Users/pallotron/Music/iTunes/iTunes Media/Music/Soft Machine/Land of Cockayne'
p48
aS'/Users/pallotron/Music/iTunes/iTunes Media/Music/Subsonica/Microchip emozionale'
p49
aS'/Users/pallotron/Music/iTunes/iTunes Media/Music/Donny Hathaway/In Performance'
p50
aS'/Users/pallotron/Music/iTunes/iTunes Media/Music/Jimi Hendrix/The Ultimate Experience'
p51
aS'/Users/pallotron/Music/iTunes/iTunes Media/Music/Ludovico Einaudi/Le onde'
p52
aS'/Users/pallotron/Music/iTunes/iTunes Media/Music/Sigur Ros/Agatis Lyrjun'
p53
aS'/Users/pallotron/Music/iTunes/iTunes Media/Music/Eagles/The Very Best of the Eagles'
p54
aS'/Users/pallotron/Music/iTunes/iTunes Media/Music/Compilations/The New Danger'
p55
aS'/Users/pallotron/Music/iTunes/iTunes Media/Music/Brandt Brauer Frick/Mr. Machine'
p56
aS'/Users/pallotron/Music/iTunes/iTunes Media/Music/The Cure/Kiss Me, Kiss Me, Kiss Me'
p57
aS'/Users/pallotron/Music/iTunes/iTunes Media/Music/Astor Piazzolla/Tanguedia'
p58
aS'/Users/pallotron/Music/iTunes/iTunes Media/Music/Mr. Bungle/California'
p59
aS'/Users/pallotron/Music/iTunes/iTunes Media/Music/Chicago/Transit Authority'
p60
aS'/Users/pallotron/Music/iTunes/iTunes Media/Music/Phoenix/United'
p61
aS'/Users/pallotron/Music/iTunes/iTunes Media/Music/Soft Machine/VII'
p62
aS'/Users/pallotron/Music/iTunes/iTunes Media/Music/The Black Keys/Attack & Release'
p63
aS'/Users/pallotron/Music/iTunes/iTunes Media/Music/Fela Kuti & Afrika 70/No Agreement'
p64
aS'/Users/pallotron/Music/iTunes/iTunes Media/Music/Led Zeppelin/BBC Sessions'
p65
aS'/Users/pallotron/Music/iTunes/iTunes Media/Music/Victor Bailey/Low Blow'
p66
aS'/Users/pallotron/Music/iTunes/iTunes Media/Music/Pink Floyd/Echoes - The Best Of Pink Floyd (CD 1)'
p67
aS'/Users/pallotron/Music/iTunes/iTunes Media/Music/Bauhaus/In the Flat Field'
p68
aS'/Users/pallotron/Music/iTunes/iTunes Media/Music/Compilations/Land (1975-2002) [Disc 1]'
p69
aS'/Users/pallotron/Music/iTunes/iTunes Media/Music/Duke Ellington & His Orchestra/Blues in Orbit'
p70
aS'/Users/pallotron/Music/iTunes/iTunes Media/Music/Lucio Dalla/Canzoni'
p71
aS'/Users/pallotron/Music/iTunes/iTunes Media/Music/Fela Kuti/Zombie'
p72
aS'/Users/pallotron/Music/iTunes/iTunes Media/Music/Infected Mushroom/Classical Mushroom'
p73
aS'/Users/pallotron/Music/iTunes/iTunes Media/Music/Led Zeppelin/Physical Graffiti I'
p74
aS'/Users/pallotron/Music/iTunes/iTunes Media/Music/Manu Chao/Clandestino'
p75
aS'/Users/pallotron/Music/iTunes/iTunes Media/Music/Charlie Hunter Quartet/Songs From the Analog Playground'
p76
aS'/Users/pallotron/Music/iTunes/iTunes Media/Music/Motel Connection/Give Me a Good Reason to Wake Up'
p77
aS'/Users/pallotron/Music/iTunes/iTunes Media/Music/Vinicio Capossela/Canzoni a manovella'
p78
aS'/Users/pallotron/Music/iTunes/iTunes Media/Music/PFM/Storia di un Minuto'
p79
aS'/Users/pallotron/Music/iTunes/iTunes Media/Music/King Crimson/Beat'
p80
aS'/Users/pallotron/Music/iTunes/iTunes Media/Music/Paul Oakenfold/Four Seasons Mixed By Paul Oakenfold (Summer)'
p81
aS'/Users/pallotron/Music/iTunes/iTunes Media/Music/Franco Battiato/Le stagioni del nostro amore - Cd 1'
p82
aS'/Users/pallotron/Music/iTunes/iTunes Media/Music/Jamiroquai/A Funk Odyssey'
p83
aS'/Users/pallotron/Music/iTunes/iTunes Media/Music/Nicola Conte/Bossa per due'
p84
aS'/Users/pallotron/Music/iTunes/iTunes Media/Music/Kasabian/Kasabian'
p85
aS'/Users/pallotron/Music/iTunes/iTunes Media/Music/Infected Mushroom/Converting Vegetarians'
p86
aS'/Users/pallotron/Music/iTunes/iTunes Media/Music/Herbie Hancock/Thrust'
p87
aS'/Users/pallotron/Music/iTunes/iTunes Media/Music/of Montreal/Hissing Fauna, Are You the Destroyer_'
p88
aS'/Users/pallotron/Music/iTunes/iTunes Media/Music/Henry Cow/Leg End'
p89
aS"/Users/pallotron/Music/iTunes/iTunes Media/Music/Eraldo Bernocchi _ Harold Budd/Music For 'Fragments From The Inside'"
p90
aS'/Users/pallotron/Music/iTunes/iTunes Media/Music/Radiohead/I Might Be Wrong_ Live Recordings'
p91
aS'/Users/pallotron/Music/iTunes/iTunes Media/Music/Donny Hathaway/Live'
p92
aS'/Users/pallotron/Music/iTunes/iTunes Media/Music/Karate/Some Boots'
p93
aS'/Users/pallotron/Music/iTunes/iTunes Media/Music/Infected Mushroom/The Gathering'
p94
aS'/Users/pallotron/Music/iTunes/iTunes Media/Music/Pink Floyd/Delicate Sound of Thunder Cd1'
p95
aS'/Users/pallotron/Music/iTunes/iTunes Media/Music/Godspeed You! Black Emperor/Lift Yr. Skinny Fists Like Antennas to Heaven!'
p96
aS'/Users/pallotron/Music/iTunes/iTunes Media/Music/A\xcc\x81stor Piazzolla/Introduccio\xcc\x81n al a\xcc\x81ngel vol.1'
p97
aS'/Users/pallotron/Music/iTunes/iTunes Media/Music/Pat Metheny Group/Trio 99-00'
p98
aS'/Users/pallotron/Music/iTunes/iTunes Media/Music/Pink Floyd/Is There Anybody Out There (The Wall Live 1980-81) Cd2'
p99
aS'/Users/pallotron/Music/iTunes/iTunes Media/Music/Pink Floyd/Is There Anybody Out There (The Wall Live 1980-81) Cd1'
p100
aS'/Users/pallotron/Music/iTunes/iTunes Media/Music/Radiohead/High & Dry (CD2)'
p101
aS'/Users/pallotron/Music/iTunes/iTunes Media/Music/Vinicio Capossela/Il ballo di San Vito'
p102
aS'/Users/pallotron/Music/iTunes/iTunes Media/Music/Radiohead/Paranoid Android (CD1)'
p103
aS'/Volumes/pallotron/Desktop/Music/Bonobo/Sweetness'
p104
aS'/Users/pallotron/Music/iTunes/iTunes Media/Music/Max Richter/Songs From Before'
p105
aS'/Volumes/pallotron/Desktop/Music/Bonobo/Animal Magic'
p106
aS'/Users/pallotron/Music/iTunes/iTunes Media/Music/Franco Battiato/Il vuoto'
p107
aS'/Users/pallotron/Music/iTunes/iTunes Media/Music/R.E.M_/Around the Sun'
p108
aS'/Users/pallotron/Music/iTunes/iTunes Media/Music/Milt Jackson/Sunflower'
p109
aS"/Users/pallotron/Music/iTunes/iTunes Media/Music/Gigi D'Agostino"
p110
aS'/Users/pallotron/Music/iTunes/iTunes Media/Music/Led Zeppelin/BBC Sessions (Disc 2)'
p111
aS'/Users/pallotron/Music/iTunes/iTunes Media/Music/Franco Battiato/Battiato Studio Collection'
p112
aS'/Users/pallotron/Music/iTunes/iTunes Media/Music/R.E.M_/Fables of the Reconstruction'
p113
aS'/Users/pallotron/Music/iTunes/iTunes Media/Music/Papa Alessandro/Unknown Album'
p114
aS'/Users/pallotron/Music/iTunes/iTunes Media/Music/Pink Floyd/A Momentary Lapse of Reason'
p115
aS'/Users/pallotron/Music/beets/of Montreal/Cherry Peel'
p116
aS"/Users/pallotron/Music/iTunes/iTunes Media/Music/Gong/Angel's Egg_ Radio Gnome Invisible, Part 2"
p117
aS'/Users/pallotron/Music/iTunes/iTunes Media/Music/Moby/Play'
p118
aS'/Users/pallotron/Music/iTunes/iTunes Media/Music/Bireli Lagrene/Gypsy Project'
p119
aS'/Users/pallotron/Music/iTunes/iTunes Media/Music/Lucio Dalla/Dalla'
p120
aS'/Users/pallotron/Music/iTunes/iTunes Media/Music/Lukid/Foma'
p121
aS'/Users/pallotron/Music/iTunes/iTunes Media/Music/Fela Kuti & Afrika 70/Expensive Shit _ He Miss Road'
p122
aS'/Users/pallotron/Music/iTunes/iTunes Media/Music/Betty Davis/Betty Davis'
p123
aS'/Users/pallotron/Music/iTunes/iTunes Media/Music/Bob Marley & The Wailers/Legend_ The Best of Bob Marley and the Wailers'
p124
aS'/Users/pallotron/Music/iTunes/iTunes Media/Music/Bonobo/One Offs Remixes & B-Sides'
p125
aS'/Users/pallotron/Music/iTunes/iTunes Media/Music/Kieran Hebden and Steve Reid'
p126
aS'/Users/pallotron/Music/iTunes/iTunes Media/Music/Medeski Martin & Wood/The Dropper'
p127
aS'/Users/pallotron/Music/iTunes/iTunes Media/Music/Blonde Redhead/Melody of Certain Damaged Lemons'
p128
aS'/Users/pallotron/Music/iTunes/iTunes Media/Music/of Montreal/Cherry Peel'
p129
aS'/Users/pallotron/Music/iTunes/iTunes Media/Music/Donny Hathaway/Everything Is Everything'
p130
aS'/Users/pallotron/Music/iTunes/iTunes Media/Music/Paul Oakenfold/Bunkka'
p131
aS'/Users/pallotron/Music/iTunes/iTunes Media/Music/Captain Beefheart/Blue Jeans And Moonbeams'
p132
aS'/Users/pallotron/Music/iTunes/iTunes Media/Music/Franco Battiato/Patriots'
p133
aS'/Users/pallotron/Music/iTunes/iTunes Media/Music/Francesco Guccini/Ritratti'
p134
aS'/Users/pallotron/Music/iTunes/iTunes Media/Music/Phish/The Story of the Ghost'
p135
aS"/Users/pallotron/Music/iTunes/iTunes Media/Music/Bob Marley and The Wailers/Burnin'"
p136
aS"/Users/pallotron/Music/iTunes/iTunes Media/Music/Vinicio Capossela/All'una e Trentacinue Circa"
p137
aS'/Users/pallotron/Music/iTunes/iTunes Media/Music/Rod Modell/Incense & Blacklight'
p138
aS"/Users/pallotron/Music/iTunes/iTunes Media/Music/Marvin Gaye/What's Going On"
p139
aS'/Users/pallotron/Music/iTunes/iTunes Media/Music/Vinicio Capossela/Ovunque proteggi'
p140
aS'/Users/pallotron/Music/iTunes/iTunes Media/Music/The Dining Rooms/Numero Deux'
p141
aS'/Users/pallotron/Music/iTunes/iTunes Media/Music/Michael Jackson/Bad'
p142
aS'/Users/pallotron/Music/iTunes/iTunes Media/Music/Fela Kuti/Roforofo Fight'
p143
aS'/Users/pallotron/Music/iTunes/iTunes Media/Music/Captain Beefheart & His Magic Band/Bluejeans & Moonbeams'
p144
aS'/Users/pallotron/Music/iTunes/iTunes Media/Music/Joanna Newsom/Have One on Me'
p145
aS'/Users/pallotron/Music/iTunes/iTunes Media/Music/Subsonica/Amorematico'
p146
aS'/Users/pallotron/Music/iTunes/iTunes Media/Music/Erik Truffaz/The Dawn'
p147
aS'/Users/pallotron/Music/iTunes/iTunes Media/Music/Franco Battiato/Live Collection (Cd 2)'
p148
aS'/Users/pallotron/Music/iTunes/iTunes Media/Music/Gonjasufi/A Sufi and a Killer'
p149
aS'/Users/pallotron/Music/iTunes/iTunes Media/Music/R.E.M_/Lifes Rich Pageant (I.R.S. Years Vintage 1986)'
p150
aS'/Users/pallotron/Music/iTunes/iTunes Media/Music/The Low Anthem/Oh My God, Charlie Darwin'
p151
aS'/Users/pallotron/Music/iTunes/iTunes Media/Music/Pat Metheny Group/Travels (disc 2)'
p152
aS'/Users/pallotron/Music/iTunes/iTunes Media/Music/Franco Battiato/La cura'
p153
aS'/Users/pallotron/Music/iTunes/iTunes Media/Music/Snoopdroop/Artificial Flavor'
p154
aS'/Users/pallotron/Music/iTunes/iTunes Media/Music/Pink Floyd/Animals'
p155
aS'/Users/pallotron/Music/iTunes/iTunes Media/Music/Ali Farka Toure\xcc\x81 & Toumani Diabate\xcc\x81/In the Heart of the Moon'
p156
aS'/Users/pallotron/Music/iTunes/iTunes Media/Music/Sangue misto/SxM'
p157
aS'/Users/pallotron/Music/iTunes/iTunes Media/Music/R.E.M_/Eponymous'
p158
aS'/Users/pallotron/Music/iTunes/iTunes Media/Music/DJ Gruff/O tutto o niente'
p159
aS'/Users/pallotron/Music/iTunes/iTunes Media/Music/Franco Battiato/Battiato'
p160
aS'/Users/pallotron/Music/iTunes/iTunes Media/Music/The Who/My Generation \xe2\x80\x93 The Very Best of The Who'
p161
aS'/Users/pallotron/Music/iTunes/iTunes Media/Music/Tenor Saw/Fever'
p162
aS'/Users/pallotron/Music/iTunes/iTunes Media/Music/R.E.M_/Murmur'
p163
aS'/Users/pallotron/Music/iTunes/iTunes Media/Music/Jethro Tull/Benefit'
p164
aS'/Users/pallotron/Music/iTunes/iTunes Media/Music/Radiohead/Just'
p165
aS'/Users/pallotron/Music/iTunes/iTunes Media/Music/Bonobo/Sweetness'
p166
aS'/Users/pallotron/Music/iTunes/iTunes Media/Music/Francesco Guccini/Stagioni'
p167
aS'/Users/pallotron/Music/iTunes/iTunes Media/Music/R.E.M_/Reveal'
p168
aS'/Users/pallotron/Music/iTunes/iTunes Media/Music/R.E.M_/Document'
p169
aS'/Users/pallotron/Music/iTunes/iTunes Media/Music/Herbie Hancock/Mr. Hands'
p170
aS'/Users/pallotron/Music/iTunes/iTunes Media/Music/Sigur Ros/( )'
p171
aS'/Users/pallotron/Music/iTunes/iTunes Media/Music/Sabastian Boaz/Audiocraft'
p172
aS'/Users/pallotron/Music/iTunes/iTunes Media/Music/Franco Battiato/Fetus'
p173
aS'/Users/pallotron/Music/iTunes/iTunes Media/Music/Medeski Martin and Wood/The Dropper'
p174
aS'/Users/pallotron/Music/iTunes/iTunes Media/Music/Tom Waits/The Early Years Vol.1'
p175
aS'/Users/pallotron/Music/iTunes/iTunes Media/Music/Quintorigo/Rospo'
p176
aS'/Users/pallotron/Music/iTunes/iTunes Media/Music/The Smashing Pumpkins/MACHINA_the machines of God'
p177
aS'/Users/pallotron/Music/iTunes/iTunes Media/Music/Q-Burns Abstract Message/\xc5\x92uvre'
p178
aS'/Users/pallotron/Music/iTunes/iTunes Media/Music/Shed/Shedding the Past'
p179
aS'/Users/pallotron/Music/iTunes/iTunes Media/Music/Wu-Tang Clan/Wu-Tang Forever (disc 1)'
p180
aS'/Users/pallotron/Music/iTunes/iTunes Media/Music/Ali Farka Toure with Ry Cooder/Talking Timbuktu'
p181
aS'/Users/pallotron/Music/iTunes/iTunes Media/Music/Vinicio Capossela/Nel niente sotto il sole'
p182
aS"/Users/pallotron/Music/iTunes/iTunes Media/Music/The Who/Who's next"
p183
aS'/Users/pallotron/Music/iTunes/iTunes Media/Music/Pink Floyd/More Soundtrack'
p184
aS'/Users/pallotron/Music/iTunes/iTunes Media/Music/Led Zeppelin/Led Zeppelin II'
p185
aS'/Users/pallotron/Music/iTunes/iTunes Media/Music/Duke Ellington/Blues In Orbit'
p186
aS'/Users/pallotron/Music/iTunes/iTunes Media/Music/Led Zeppelin/Coda'
p187
aS'/Users/pallotron/Music/iTunes/iTunes Media/Music/Patti Smith/Land (1975-2002) [Disc 2]'
p188
aS'/Users/pallotron/Music/iTunes/iTunes Media/Music/The Cranberries/Stars_ The Best of 1992-2002'
p189
aS'/Users/pallotron/Music/iTunes/iTunes Media/Music/Q-Burns Abstract Message/Oeuvre'
p190
aS'/Users/pallotron/Music/iTunes/iTunes Media/Music/Pink Floyd/Dark Side Of The Moon'
p191
aS'/Users/pallotron/Music/iTunes/iTunes Media/Music/Gong/You_ Radio Gnome Invisible, Part 3'
p192
aS'/Users/pallotron/Music/iTunes/iTunes Media/Music/The Smashing Pumpkins/Machina - The Machines of God'
p193
aS'/Users/pallotron/Music/iTunes/iTunes Media/Music/Gentle Giant/Trio 99-00'
p194
aS'/Users/pallotron/Music/iTunes/iTunes Media/Music/The Stooges/The Stooges'
p195
aS'/Users/pallotron/Music/iTunes/iTunes Media/Music/King Crimson/In The Court Of The Crimson King (1969)'
p196
aS'/Users/pallotron/Music/iTunes/iTunes Media/Music/R.E.M_/Chronic Town'
p197
aS'/Users/pallotron/Music/iTunes/iTunes Media/Music/Pink Floyd/1969-09-17_ Concertgebouw, Amsterdam, Netherlands'
p198
aS'/Users/pallotron/Music/iTunes/iTunes Media/Music/Franco Battiato/Ferro battuto'
p199
aS'/Users/pallotron/Music/iTunes/iTunes Media/Music/Pink Floyd/Obscured by Clouds'
p200
aS'/Users/pallotron/Music/iTunes/iTunes Media/Music/Herbie Hancock/Secrets'
p201
aS'/Users/pallotron/Music/iTunes/iTunes Media/Music/Ice-T/Seventh Deadly Sin'
p202
aS'/Users/pallotron/Music/iTunes/iTunes Media/Music/The Depreciation Guild/Nautilus'
p203
aS'/Users/pallotron/Music/iTunes/iTunes Media/Music/Prodigy/The Fat Of The Land'
p204
aS'/Users/pallotron/Music/iTunes/iTunes Media/Music/Oysterhead/The Grand Pecking Order'
p205
aS'/Users/pallotron/Music/iTunes/iTunes Media/Music/R.E.M_/Automatic for the People'
p206
aS'/Users/pallotron/Music/iTunes/iTunes Media/Music/Paavoharju/Laulu laakson kukista'
p207
aS'/Users/pallotron/Music/iTunes/iTunes Media/Music/Sigur Ro\xcc\x81s/A\xcc\x81g\xc3\xa6tis byrjun'
p208
aS'/Users/pallotron/Music/iTunes/iTunes Media/Music/Ali Farka Toure/Savane'
p209
aS'/Users/pallotron/Music/iTunes/iTunes Media/Music/Lucio Dalla/Henna'
p210
aS'/Users/pallotron/Music/iTunes/iTunes Media/Music/Frank Zappa/Hot Rats'
p211
aS'/Users/pallotron/Music/iTunes/iTunes Media/Music/Monolake/Gravity'
p212
aS'/Users/pallotron/Music/iTunes/iTunes Media/Music/The Cranberries/Bury the Hatchet'
p213
aS'/Users/pallotron/Music/iTunes/iTunes Media/Music/Donny Hathaway/Donny Hathaway Live'
p214
aS'/Users/pallotron/Music/iTunes/iTunes Media/Music/Kruder & Dorfmeister/The K&D Sessions Part One'
p215
aS'/Users/pallotron/Music/iTunes/iTunes Media/Music/Samla Mammas Manna/Kaka'
p216
aS'/Users/pallotron/Music/iTunes/iTunes Media/Music/Henry Cow/Slapp Happy'
p217
aS"/Users/pallotron/Music/iTunes/iTunes Media/Music/Bob Marley & The Wailers/Burnin'"
p218
aS'/Users/pallotron/Music/iTunes/iTunes Media/Music/Pink Floyd/The Wall CD 1'
p219
aS'/Users/pallotron/Music/iTunes/iTunes Media/Music/Pink Floyd/The Wall CD 2'
p220
aS'/Users/pallotron/Music/iTunes/iTunes Media/Music/Genesis/A Trick of the Tail'
p221
aS'/Users/pallotron/Music/iTunes/iTunes Media/Music/Led Zeppelin/Led Zeppelin IV'
p222
aS'/Users/pallotron/Music/iTunes/iTunes Media/Music/Simon & Garfunkel/The Concert in Central Park'
p223
aS'/Users/pallotron/Music/iTunes/iTunes Media/Music/Burning Spear/Social Living'
p224
aS'/Users/pallotron/Music/iTunes/iTunes Media/Music/Franco Battiato/_Clic_'
p225
aS'/Users/pallotron/Music/iTunes/iTunes Media/Music/Paul Oakenfold/A Lively Mind'
p226
aS"/Users/pallotron/Music/iTunes/iTunes Media/Music/Frank Zappa/Chunga's Revenge"
p227
aS'/Users/pallotron/Music/iTunes/iTunes Media/Music/Tom Waits/Franks Wild Years'
p228
aS'/Users/pallotron/Music/iTunes/iTunes Media/Music/Pat Metheny Group/We Live Here'
p229
aS'/Users/pallotron/Music/iTunes/iTunes Media/Music/Karate/Unsolved'
p230
aS'/Users/pallotron/Music/iTunes/iTunes Media/Music/Mooncake/Lagrange Points'
p231
aS'/Users/pallotron/Music/iTunes/iTunes Media/Music/Radiohead/Paranoid Android (CD2)'
p232
aS'/Users/pallotron/Music/iTunes/iTunes Media/Music/Miles Davis/Bitches Brew (disc 2)'
p233
aS"/Users/pallotron/Music/iTunes/iTunes Media/Music/Franco Battiato/L'arca di Noe\xcc\x80"
p234
aS"/Users/pallotron/Music/iTunes/iTunes Media/Music/Vinicio Capossela/All'una e trentacinque circa"
p235
aS'/Volumes/pallotron/Desktop/Music/Bonobo/One Off Remixes and B-Sides'
p236
aS'/Users/pallotron/Music/iTunes/iTunes Media/Music/Soft Machine/IV - V'
p237
aS'/Users/pallotron/Music/iTunes/iTunes Media/Music/Wibutee/Eight Domestic Challenges'
p238
aS'/Users/pallotron/Music/iTunes/iTunes Media/Music/Led Zeppelin/Led Zeppelin'
p239
aS'/Users/pallotron/Music/iTunes/iTunes Media/Music/The Flaming Lips/Yoshimi Battles the Pink Robots'
p240
aS'/Users/pallotron/Music/iTunes/iTunes Media/Music/Sigur Ros/Takk.._'
p241
aS'/Users/pallotron/Music/iTunes/iTunes Media/Music/Pink Floyd/Pulse (CD2)'
p242
aS'/Users/pallotron/Music/iTunes/iTunes Media/Music/Franco Battiato/Mondi lontanissimi'
p243
aS'/Users/pallotron/Music/iTunes/iTunes Media/Music/Wu\xe2\x80\x90Tang Clan/Enter the Wu-Tang_ 36 Chambers'
p244
aS'/Users/pallotron/Music/iTunes/iTunes Media/Music/7 Hurtz/Electroleum'
p245
aS'/Users/pallotron/Music/iTunes/iTunes Media/Music/Pink Floyd/Meddle'
p246
aS'/Volumes/pallotron/Desktop/Music/Bonobo/Days to Come Disc 1'
p247
aS'/Volumes/pallotron/Desktop/Music/Bonobo/Days to Come Disc 2'
p248
aS'/Users/pallotron/Music/iTunes/iTunes Media/Music/Bob Dylan/Nashville Skyline'
p249
aS'/Users/pallotron/Music/iTunes/iTunes Media/Music/Fabrizio De Andre\xcc\x81/In concerto (arrangiamenti PFM)'
p250
aS'/Users/pallotron/Music/iTunes/iTunes Media/Music/Explosions in the Sky/The Earth Is Not a Cold Dead Place'
p251
aS'/Users/pallotron/Music/iTunes/iTunes Media/Music/Franco Battiato/Clic'
p252
aS'/Users/pallotron/Music/iTunes/iTunes Media/Music/Robert Wyatt/Nothing Can Stop Us'
p253
aS'/Users/pallotron/Music/iTunes/iTunes Media/Music/Fugees/The Score'
p254
aS'/Users/pallotron/Music/iTunes/iTunes Media/Music/David Bowie/_Heroes_'
p255
aS'/Users/pallotron/Music/iTunes/iTunes Media/Music/Gentle Giant/The Power and the Glory'
p256
aS'/Users/pallotron/Music/iTunes/iTunes Media/Music/Steve Martin and the Steep Canyon Rangers/Rare Bird Alert'
p257
aS'/Users/pallotron/Music/iTunes/iTunes Media/Music/Francesco De Gregori/Prendere e lasciare'
p258
aS'/Users/pallotron/Music/iTunes/iTunes Media/Music/Bluvertigo/Metallo non metallo'
p259
aS'/Users/pallotron/Music/iTunes/iTunes Media/Music/Fela Kuti & Afrika 70/Confusion _ Gentleman'
p260
aS'/Users/pallotron/Music/iTunes/iTunes Media/Music/Elio e le Storie Tese/Esco dal mio corpo e ho molta'
p261
aS'/Users/pallotron/Music/iTunes/iTunes Media/Music/Tom Waits/Beautiful Maladies_ The Island Years'
p262
aS'/Users/pallotron/Music/iTunes/iTunes Media/Music/Gentle Giant/Acquiring the Taste'
p263
aS'/Users/pallotron/Music/iTunes/iTunes Media/Music/Bob Marley and The Wailers/Catch a Fire'
p264
aS'/Users/pallotron/Music/iTunes/iTunes Media/Music/Ray LaMontagne/Trouble'
p265
aS'/Users/pallotron/Music/iTunes/iTunes Media/Music/Giuliano Palma And The Blue Beaters/The Wonderful Live'
p266
aS'/Users/pallotron/Music/iTunes/iTunes Media/Music/Paul Oakenfold/Four Seasons Mixed By Paul Oakenfold (Winter)'
p267
aS'/Users/pallotron/Music/iTunes/iTunes Media/Music/Franco Battiato/Caffe\xcc\x81 de la Paix'
p268
aS'/Users/pallotron/Music/iTunes/iTunes Media/Music/Muse/Showbiz'
p269
aS'/Users/pallotron/Music/iTunes/iTunes Media/Music/Bireli Lagrene/Routes To Django'
p270
aS'/Users/pallotron/Music/iTunes/iTunes Media/Music/Fabrizio De Andre/In Concerto (con la PFM) Vol.2'
p271
aS'/Users/pallotron/Music/iTunes/iTunes Media/Music/Led Zeppelin/Presence'
p272
aS'/Users/pallotron/Music/iTunes/iTunes Media/Music/Arcade Fire/Funeral'
p273
aS'/Users/pallotron/Music/iTunes/iTunes Media/Music/Franco Battiato/Live Collection (Cd 1)'
p274
aS'/Users/pallotron/Music/iTunes/iTunes Media/Music/Tortoise/TNT'
p275
aS'/Users/pallotron/Music/iTunes/iTunes Media/Music/Beck/Sea Change'
p276
aS'/Users/pallotron/Music/iTunes/iTunes Media/Music/Flight of the Conchords/Flight of the Conchords'
p277
aS'/Users/pallotron/Music/iTunes/iTunes Media/Music/The Roots/Things Fall Apart'
p278
aS'/Users/pallotron/Music/iTunes/iTunes Media/Music/Neffa/Neffa & I messaggeri della dopa'
p279
aS'/Users/pallotron/Music/iTunes/iTunes Media/Music/Fever Ray/Fever Ray'
p280
aS'/Users/pallotron/Music/iTunes/iTunes Media/Music/Charlie Hunter/Songs from the analog playground'
p281
aS'/Users/pallotron/Music/iTunes/iTunes Media/Music/Elio e le Storie Tese/Elio samaga hukapan kariyana turu'
p282
aS'/Users/pallotron/Music/iTunes/iTunes Media/Music/Franco Battiato/Orizzonti perduti'
p283
aS'/Users/pallotron/Music/iTunes/iTunes Media/Music/Steve Martin and the Steep Canyon Rangers with the Dixie Chicks/Rare Bird Alert'
p284
aS"/Users/pallotron/Music/iTunes/iTunes Media/Music/Fela Ransome Kuti & Nigeria 70/The '69 Los Angeles Sessions"
p285
aS'/Users/pallotron/Music/iTunes/iTunes Media/Music/Trey Anastasio/Plasma'
p286
aS'/Users/pallotron/Music/iTunes/iTunes Media/Music/Franco Battiato/Genesis'
p287
aS'/Users/pallotron/Music/iTunes/iTunes Media/Music/Bonobo/One Offs... Remixes & B-Sides'
p288
aS'/Users/pallotron/Music/iTunes/iTunes Media/Music/Pink Floyd/The Dark Side of the Moon'
p289
aS'/Users/pallotron/Music/iTunes/iTunes Media/Music/Method Man & Redman/Blackout!'
p290
aS'/Users/pallotron/Music/iTunes/iTunes Media/Music/Explosions in the Sky/Take Care, Take Care, Take Care'
p291
aS'/Users/pallotron/Music/iTunes/iTunes Media/Music/Peter Broderick/Music for Falling From Trees'
p292
aS'/Users/pallotron/Music/iTunes/iTunes Media/Music/Franco Battiato/Battiato Studio Collection (Cd 2)'
p293
aS'/Users/pallotron/Music/iTunes/iTunes Media/Music/Mats_Morgan Band/On Air With Guests'
p294
aS'/Users/pallotron/Music/iTunes/iTunes Media/Music/Phish/Rift'
p295
aS'/Users/pallotron/Music/iTunes/iTunes Media/Music/Paul Oakenfold/Four Seasons Mixed By Paul Oakenfold (Autumn)'
p296
aS'/Users/pallotron/Music/iTunes/iTunes Media/Music/The Prodigy/The Fat of the Land'
p297
aS'/Users/pallotron/Music/iTunes/iTunes Media/Music/Pink Floyd/Relics Cd2'
p298
aS'/Users/pallotron/Music/iTunes/iTunes Media/Music/Fleet Foxes/Sun Giant'
p299
aS'/Users/pallotron/Music/iTunes/iTunes Media/Music/Iva Bittova\xcc\x81 & Vladimi\xcc\x81r Va\xcc\x81clavek/Bi\xcc\x81le\xcc\x81 inferno (disc 1)'
p300
aS'/Users/pallotron/Music/iTunes/iTunes Media/Music/Pink Floyd/Pulse'
p301
aS'/Users/pallotron/Music/iTunes/iTunes Media/Music/Sonic Youth/Murray Street'
p302
aS'/Users/pallotron/Music/iTunes/iTunes Media/Music/Radiohead/Knives Out (CD2)'
p303
aS'/Users/pallotron/Music/iTunes/iTunes Media/Music/Franco Battiato/Genesi'
p304
aS"/Users/pallotron/Music/iTunes/iTunes Media/Music/Kaos One/-_-_-_-_- L'attesa"
p305
aS'/Users/pallotron/Music/iTunes/iTunes Media/Music/Buena Vista Social Club/Buena Vista Social Club'
p306
aS'/Users/pallotron/Music/iTunes/iTunes Media/Music/Compilations/IL VUOTO'
p307
aS'/Users/pallotron/Music/iTunes/iTunes Media/Music/Bobby _Boris_ Pickett & The Crypt Kickers/The Original Monster Mash'
p308
aS'/Users/pallotron/Music/iTunes/iTunes Media/Music/Reagge National Ticket/Roof Club'
p309
aS'/Users/pallotron/Music/iTunes/iTunes Media/Music/Francesco De Gregori/I miti musica_ De Gregori'
p310
aS'/Users/pallotron/Music/iTunes/iTunes Media/Music/Iva Bittova/Dunaj'
p311
aS'/Users/pallotron/Music/iTunes/iTunes Media/Music/Talking Heads/Remain in Light'
p312
aS'/Users/pallotron/Music/iTunes/iTunes Media/Music/Michael Jackson/Thriller'
p313
aS'/Users/pallotron/Music/iTunes/iTunes Media/Music/Astor Piazzolla/Milonga del Angel'
p314
aS'/Users/pallotron/Music/iTunes/iTunes Media/Music/Robert Wyatt/Old Rottenhat'
p315
aS'/Users/pallotron/Music/iTunes/iTunes Media/Music/Melma & Merda/Merda & Melma'
p316
aS'/Users/pallotron/Music/iTunes/iTunes Media/Music/Gentle Giant/Civilian'
p317
aS'/Users/pallotron/Music/iTunes/iTunes Media/Music/Fred Frith/Cheap at Half the Price'
p318
aS'/Users/pallotron/Music/iTunes/iTunes Media/Music/Medeski Martin and Wood/Shack-Man'
p319
aS'/Users/pallotron/Music/iTunes/iTunes Media/Music/Radiohead/The Bends'
p320
aS'/Users/pallotron/Music/iTunes/iTunes Media/Music/Gong/Flying Teapot_ Radio Gnome Invisible, Part 1'
p321
aS"/Users/pallotron/Music/iTunes/iTunes Media/Music/Pink Floyd/Amsterdam '69"
p322
aS"/Users/pallotron/Music/iTunes/iTunes Media/Music/Medeski Martin & Wood/It's A Jungle In Here"
p323
aS'/Users/pallotron/Music/iTunes/iTunes Media/Music/Pat Metheny Group/Still Life (Talking)'
p324
aS'/Users/pallotron/Music/iTunes/iTunes Media/Music/Lipps, Inc_/Funkyworld_ The Best of Lipps, Inc_'
p325
aS'/Users/pallotron/Music/iTunes/iTunes Media/Music/Chicago/Chicago II'
p326
aS'/Users/pallotron/Music/iTunes/iTunes Media/Music/Vladislav Delay/The Four Quarters'
p327
aS'/Users/pallotron/Music/iTunes/iTunes Media/Music/The Dining Rooms/Subterranean Modern_ Volume Uno'
p328
aS'/Users/pallotron/Music/iTunes/iTunes Media/Music/The White Stripes/White Blood Cells'
p329
aS'/Users/pallotron/Music/iTunes/iTunes Media/Music/Radiohead/Amnesiac'
p330
aS'/Users/pallotron/Music/iTunes/iTunes Media/Music/The Dining Rooms/Tre'
p331
aS'/Users/pallotron/Music/iTunes/iTunes Media/Music/Paul Oakenfold/Four Seasons Mixed By Paul Oakenfold (Spring)'
p332
aS"/Users/pallotron/Music/iTunes/iTunes Media/Music/Vinicio Capossela/Modi'"
p333
aS'/Users/pallotron/Music/iTunes/iTunes Media/Music/Iva Bittova\xcc\x81 & Vladimi\xcc\x81r Va\xcc\x81clavek/Bi\xcc\x81le\xcc\x81 inferno'
p334
aS'/Users/pallotron/Music/iTunes/iTunes Media/Music/The Doors/The Doors'
p335
aS'/Users/pallotron/Music/iTunes/iTunes Media/Music/Emerson, Lake & Palmer/The Best of Emerson, Lake & Palmer'
p336
aS"/Users/pallotron/Music/iTunes/iTunes Media/Music/Franco Battiato/L'imboscata"
p337
aS'/Users/pallotron/Music/iTunes/iTunes Media/Music/Neutral Milk Hotel/In the Aeroplane Over the Sea'
p338
aS'/Users/pallotron/Music/iTunes/iTunes Media/Music/Compilations/Nothing Can Stop Us'
p339
aS'/Users/pallotron/Music/iTunes/iTunes Media/Music/Fela Kuti & Afrika 70/Opposite People _ Sorrow Tears and Blood'
p340
aS'/Users/pallotron/Music/iTunes/iTunes Media/Music/SART/Sart'
p341
aS'/Users/pallotron/Music/iTunes/iTunes Media/Music/Compilations/La convenzione'
p342
aS'/Users/pallotron/Music/iTunes/iTunes Media/Music/Vinicio Capossela/Modi\xcc\x80'
p343
aS'/Users/pallotron/Music/iTunes/iTunes Media/Music/Franco Battiato/M.elle le _Gladiator_'
p344
aS'/Users/pallotron/Music/iTunes/iTunes Media/Music/UNKLE/War Stories'
p345
aS'/Users/pallotron/Music/iTunes/iTunes Media/Music/Fela Kuti & Afrika 70/Zombie'
p346
aS'/Users/pallotron/Music/iTunes/iTunes Media/Music/R.E.M_/Dead Letter Office'
p347
aS'/Users/pallotron/Music/iTunes/iTunes Media/Music/Brian Eno & Harold Budd/The Pearl'
p348
aS'/Users/pallotron/Music/iTunes/iTunes Media/Music/Fabrizio De Andre/In Concerto (con la PFM)'
p349
aS'/Users/pallotron/Music/iTunes/iTunes Media/Music/The Doors/L.A. Woman'
p350
aS"/Users/pallotron/Music/iTunes/iTunes Media/Music/Franco Battiato/L'era del cinghiale bianco"
p351
aS"/Users/pallotron/Music/iTunes/iTunes Media/Music/Morgan/Canzoni dell'appartamento"
p352
aS'/Users/pallotron/Music/iTunes/iTunes Media/Music/UNKLE/End Titles... Stories for Film'
p353
aS'/Users/pallotron/Music/iTunes/iTunes Media/Music/Fela Anikulapo Kuti & Egypt 80/Live in Amsterdam'
p354
aS'/Users/pallotron/Music/iTunes/iTunes Media/Music/Radiohead/Knives Out (CD1)'
p355
aS'/Users/pallotron/Music/iTunes/iTunes Media/Music/Pjusk/Sart'
p356
aS'/Users/pallotron/Music/iTunes/iTunes Media/Music/Pink Floyd/The Piper at the Gates of Dawn'
p357
aS'/Users/pallotron/Music/iTunes/iTunes Media/Music/Gong/Camembert Electrique'
p358
aS'/Users/pallotron/Music/iTunes/iTunes Media/Music/Infected Mushroom/Vicious Delicious'
p359
aS'/Users/pallotron/Music/iTunes/iTunes Media/Music/Led Zeppelin/Physical Graffiti II'
p360
aS'/Users/pallotron/Music/iTunes/iTunes Media/Music/Elio e le Storie Tese/Peerla'
p361
aS'/Users/pallotron/Music/iTunes/iTunes Media/Music/Radiohead/Karma Police (CD2)'
p362
aS'/Users/pallotron/Music/iTunes/iTunes Media/Music/Sigur Ro\xcc\x81s/Takk.._'
p363
aS'/Users/pallotron/Music/iTunes/iTunes Media/Music/Rage Against the Machine/The Battle of Los Angeles'
p364
aS'/Users/pallotron/Music/iTunes/iTunes Media/Music/Pink Floyd/Delicate Sound Of Thunder Cd2'
p365
aS'/Users/pallotron/Music/iTunes/iTunes Media/Music/R.E.M_/Monster'
p366
aS'/Users/pallotron/Music/iTunes/iTunes Media/Music/Stephen Malkmus and the Jicks/Real Emotional Trash'
p367
aS'/Users/pallotron/Music/iTunes/iTunes Media/Music/Elio e le Storie Tese/Del Meglio Del Nostro Meglio'
p368
aS'/Users/pallotron/Music/iTunes/iTunes Media/Music/Ali Farka Toure\xcc\x81/Savane'
p369
aS'/Users/pallotron/Music/iTunes/iTunes Media/Music/Cortney Tidwell/Boys'
p370
aS'/Users/pallotron/Music/iTunes/iTunes Media/Music/Cliff Martinez/Drive'
p371
aS'/Users/pallotron/Music/iTunes/iTunes Media/Music/Pat Metheny Group/Letter From Home'
p372
aS'/Users/pallotron/Music/iTunes/iTunes Media/Music/King Crimson/Islands'
p373
aS'/Users/pallotron/Music/iTunes/iTunes Media/Music/Pink Floyd/Pulse (CD1)'
p374
aS'/Users/pallotron/Music/iTunes/iTunes Media/Music/Depeche Mode/Violator'
p375
aS'/Users/pallotron/Music/iTunes/iTunes Media/Music/Franco Battiato/Battiato Studio Collection (Cd 1)'
p376
aS'/Users/pallotron/Music/iTunes/iTunes Media/Music/Pink Floyd/Echoes - The Best Of Pink Floyd (CD 2)'
p377
aS'/Users/pallotron/Music/iTunes/iTunes Media/Music/Kieran Hebden & Steve Reid'
p378
aS'/Users/pallotron/Music/iTunes/iTunes Media/Music/Karate/In Place of Real Insight'
p379
aS'/Users/pallotron/Music/iTunes/iTunes Media/Music/Bire\xcc\x81li Lagre\xcc\x80ne/Routes to Django'
p380
aS'/Users/pallotron/Music/iTunes/iTunes Media/Music/Fela Kuti/Monkey Banana _ Excuse O'
p381
aS'/Users/pallotron/Music/iTunes/iTunes Media/Music/Neil Young/Zuma'
p382
aS'/Users/pallotron/Music/iTunes/iTunes Media/Music/Frank Zappa/The Best Band You Never Heard in Your Life'
p383
aS'/Users/pallotron/Music/iTunes/iTunes Media/Music/Pink Floyd/The Complete Zabriskie Point Sessions'
p384
aS'/Users/pallotron/Music/iTunes/iTunes Media/Music/Dave Douglas/Freak In'
p385
aS'/Users/pallotron/Music/iTunes/iTunes Media/Music/Bluvertigo/Zero'
p386
aS"/Users/pallotron/Music/iTunes/iTunes Media/Music/Bonobo/Dial 'M' for Monkey"
p387
aS'/Users/pallotron/Music/iTunes/iTunes Media/Music/Bob Marley and The Wailers/The best of (legend)'
p388
aS'/Users/pallotron/Music/iTunes/iTunes Media/Music/Franco Battiato/Last Summer Dance Cd 1'
p389
aS'/Users/pallotron/Music/iTunes/iTunes Media/Music/Franco Battiato/Last Summer Dance Cd 2'
p390
aS'/Users/pallotron/Music/iTunes/iTunes Media/Music/R.E.M_/Reckoning'
p391
aS'/Users/pallotron/Music/iTunes/iTunes Media/Music/The Cranberries/Stars The Best 92-02'
p392
aS'/Users/pallotron/Music/iTunes/iTunes Media/Music/Premiata Forneria Marconi/Storia di un minuto'
p393
aS'/Users/pallotron/Music/iTunes/iTunes Media/Music/Radiohead/Knives Out'
p394
aS'/Users/pallotron/Music/iTunes/iTunes Media/Music/Francesco De Gregori/De Gregori'
p395
aS'/Users/pallotron/Downloads/Bonobo - Black Sands [mp3-320-2010]'
p396
aS'/Users/pallotron/Music/iTunes/iTunes Media/Music/Captain Beefheart/London 1974'
p397
aS'/Users/pallotron/Music/iTunes/iTunes Media/Music/Lipps Inc_/Funkyworld - The Best Of Lipp'
p398
aS'/Users/pallotron/Music/iTunes/iTunes Media/Music/Unknown Artist/Unknown Album'
p399
aS'/Users/pallotron/Music/iTunes/iTunes Media/Music/Miles Davis/On the Corner'
p400
aS'/Users/pallotron/Music/iTunes/iTunes Media/Music/Franco Battiato/Caffe De La Paix'
p401
aS'/Users/pallotron/Music/iTunes/iTunes Media/Music/The Doors/Morrison Hotel'
p402
aS'/Users/pallotron/Music/iTunes/iTunes Media/Music/Lawrence English/A Colour for Autumn'
p403
aS'/Users/pallotron/Music/iTunes/iTunes Media/Music/David Sugar/Fresh Off The Chip'
p404
aS'/Users/pallotron/Music/iTunes/iTunes Media/Music/Peter Tosh/Scrolls of the Prophet - The Best'
p405
aS'/Users/pallotron/Music/iTunes/iTunes Media/Music/Led Zeppelin/Houses of the Holy'
p406
aS'/Users/pallotron/Music/iTunes/iTunes Media/Music/The Doors/The Best of The Doors'
p407
aS"/Users/pallotron/Music/iTunes/iTunes Media/Music/Kaos One/L'attesa"
p408
aS"/Users/pallotron/Music/iTunes/iTunes Media/Music/Franco Battiato/L'Arca di Noe'"
p409
aS'/Users/pallotron/Music/iTunes/iTunes Media/Music/Thurston Moore/Trees Outside the Academy'
p410
aS'/Users/pallotron/Music/iTunes/iTunes Media/Music/Syd Barrett/The Madcap Laughs'
p411
aS'/Users/pallotron/Music/iTunes/iTunes Media/Music/Francesco De Gregori/Alice non lo sa'
p412
aS'/Users/pallotron/Music/iTunes/iTunes Media/Music/The Dining Rooms/Experiments in Ambient Soul'
p413
aS'/Users/pallotron/Music/iTunes/iTunes Media/Music/Infected Mushroom/IM the Supervisor'
p414
aS'/Users/pallotron/Music/iTunes/iTunes Media/Music/Franco Battiato/Pollution'
p415
aS'/Users/pallotron/Music/iTunes/iTunes Media/Music/Stephen Malkmus & The Jicks/Real Emotional Trash'
p416
aS'/Users/pallotron/Music/iTunes/iTunes Media/Music/Reggae National Tickets/Roof Club'
p417
aS'/Users/pallotron/Music/iTunes/iTunes Media/Music/David Bowie/Low'
p418
aS'/Users/pallotron/Music/iTunes/iTunes Media/Music/John Surman/Way Back When'
p419
aS'/Users/pallotron/Music/iTunes/iTunes Media/Music/Radiohead/Karma Police'
p420
aS'/Users/pallotron/Music/iTunes/iTunes Media/Music/Sigur Ro\xcc\x81s/Me\xc3\xb0 su\xc3\xb0 i\xcc\x81 eyrum vi\xc3\xb0 spilum endalaust'
p421
aS'/Users/pallotron/Music/iTunes/iTunes Media/Music/Radiohead/Kid A'
p422
aS'/Users/pallotron/Music/iTunes/iTunes Media/Music/Steve Martin and the Steep Canyon Rangers with Paul McCartney/Rare Bird Alert'
p423
aS'/Users/pallotron/Music/iTunes/iTunes Media/Music/Pink Floyd/Live at Pompeii'
p424
aS'/Users/pallotron/Music/iTunes/iTunes Media/Music/Pavement/Wowee Zowee'
p425
aS'/Users/pallotron/Music/iTunes/iTunes Media/Music/Gregory Isaacs/Night Nurse'
p426
aS'/Users/pallotron/Music/iTunes/iTunes Media/Music/Frank Zappa/Zappa in New York'
p427
aS'/Users/pallotron/Music/iTunes/iTunes Media/Music/Karate/Pockets'
p428
aS'/Users/pallotron/Music/iTunes/iTunes Media/Music/Antony and the Johnsons/The Crying Light'
p429
aS'/Users/pallotron/Music/iTunes/iTunes Media/Music/Fabrizio De Andre\xcc\x81/In direzione ostinata e contraria'
p430
aS'/Users/pallotron/Music/iTunes/iTunes Media/Music/Burning Spear/Calling Rastafari'
p431
aS'/Users/pallotron/Music/iTunes/iTunes Media/Music/The Fall/Imperial Wax Solvent'
p432
aS'/Users/pallotron/Music/iTunes/iTunes Media/Music/Vladisalav Delay/The Four Quarters'
p433
aS'/Users/pallotron/Music/iTunes/iTunes Media/Music/Kruder & Dorfmeister/The K&D Sessions\xe2\x84\xa2'
p434
aS'/Users/pallotron/Music/iTunes/iTunes Media/Music/Harold Budd_Brian Eno/The Pearl'
p435
aS'/Users/pallotron/Music/iTunes/iTunes Media/Music/Giorgio Gaber/La mia generazione ha perso'
p436
aS'/Users/pallotron/Music/iTunes/iTunes Media/Music/Ali Farka Toure\xcc\x81 with Ry Cooder/Talking Timbuktu'
p437
aS'/Users/pallotron/Music/iTunes/iTunes Media/Music/Patti Smith/Land (1975-2002)'
p438
aS'/Users/pallotron/Music/iTunes/iTunes Media/Music/Colle der fomento/Odio pieno'
p439
aS'/Users/pallotron/Music/iTunes/iTunes Media/Music/Compilations/War Stories'
p440
aS'/Users/pallotron/Music/iTunes/iTunes Media/Music/Bill Frisell/The Intercontinentals'
p441
aS'/Users/pallotron/Music/iTunes/iTunes Media/Music/Radiohead/Karma Police (CD1)'
p442
aS'/Users/pallotron/Music/iTunes/iTunes Media/Music/The Sheds/Shedding The Past'
p443
aS'/Users/pallotron/Music/iTunes/iTunes Media/Music/The Alan Parsons Project/Anthology'
p444
aS'/Users/pallotron/Music/iTunes/iTunes Media/Music/The Avalanches/Since I Left You'
p445
aS'/Users/pallotron/Music/iTunes/iTunes Media/Music/Franco Battiato/Shadow, Light'
p446
aS'/Users/pallotron/Music/iTunes/iTunes Media/Music/Miles Davis/Bitches Brew (disc 1)'
p447
aS'/Users/pallotron/Music/iTunes/iTunes Media/Music/Colleen/Everyone Alive Wants Answers'
p448
aS"/Users/pallotron/Music/iTunes/iTunes Media/Music/Gigi D_Agostino/L'Amour Toujours"
p449
aS'/Users/pallotron/Music/iTunes/iTunes Media/Music/Nirvana/Nevermind'
p450
aS'/Users/pallotron/Music/iTunes/iTunes Media/Music/Tim Hecker/An Imaginary Country'
p451
aS'/Users/pallotron/Music/iTunes/iTunes Media/Music/John Scofield/A Go Go'
p452
aS'/Users/pallotron/Music/iTunes/iTunes Media/Music/Radiohead/In Rainbows'
p453
aS'/Users/pallotron/Music/iTunes/iTunes Media/Music/DJ Gruff/Zero Stress'
p454
aS'/Users/pallotron/Music/iTunes/iTunes Media/Music/Matching Mole/Matching Mole'
p455
aS'/Users/pallotron/Music/iTunes/iTunes Media/Music/Chicago/Chicago III'
p456
aS'/Users/pallotron/Music/iTunes/iTunes Media/Music/Korn/Follow the Leader'
p457
aS'/Users/pallotron/Music/iTunes/iTunes Media/Music/Robert Wyatt/Theatre Royal Drury Lane 8.09.1974'
p458
aS'/Users/pallotron/Music/iTunes/iTunes Media/Music/Soft Machine/VI'
p459
aS'/Users/pallotron/Music/iTunes/iTunes Media/Music/Elio e le Storie Tese/Italyan, rum casusu c\xcc\xa7ikti'
p460
aS'/Users/pallotron/Music/iTunes/iTunes Media/Music/Quintorigo/Grigio'
p461
aS'/Users/pallotron/Music/iTunes/iTunes Media/Music/Jimi Hendrix/Are You Experienced'
p462
aNaS'/Users/pallotron/Music/iTunes/iTunes Media/Music/Miles Davis/Bitches Brew'
p463
aS'/Users/pallotron/Music/iTunes/iTunes Media/Music/Godspeed You! Black Emperor/Lift Your Skinny Fists Like Antennas To Heaven'
p464
aS'/Users/pallotron/Music/iTunes/iTunes Media/Music/Boom & Birds/Confetti'
p465
aS"/Users/pallotron/Music/iTunes/iTunes Media/Music/Betty Davis/They Say I'm Different"
p466
aS'/Users/pallotron/Music/iTunes/iTunes Media/Music/Pink Floyd/Early Singles'
p467
aS'/Users/pallotron/Music/iTunes/iTunes Media/Music/Nicola Conte/Jet Sounds Revisited'
p468
aS'/Users/pallotron/Music/iTunes/iTunes Media/Music/Pink Floyd/A Collection of Great Dance Songs'
p469
aS'/Users/pallotron/Music/iTunes/iTunes Media/Music/Soft Machine/Volumes One & Two'
p470
aS'/Users/pallotron/Music/iTunes/iTunes Media/Music/Led Zeppelin/In Through the Out Door'
p471
aS'/Users/pallotron/Music/iTunes/iTunes Media/Music/Simon and Garfunkel/The Concert in Central Park'
p472
aS'/Users/pallotron/Music/iTunes/iTunes Media/Music/Joe Cassano/Dio Lodato'
p473
aS'/Users/pallotron/Music/iTunes/iTunes Media/Music/Frank Zappa/Live In New York - Cd 1'
p474
aS'/Users/pallotron/Music/iTunes/iTunes Media/Music/Infected Mushroom/B.p. Empire'
p475
aS'/Users/pallotron/Music/iTunes/iTunes Media/Music/Compilations/Gilles Peterson Worldwide Exclusives'
p476
aS'/Users/pallotron/Music/iTunes/iTunes Media/Music/King Crimson/In the Court of the Crimson King_ An Observation by King Crimson'
p477
aS'/Users/pallotron/Music/iTunes/iTunes Media/Music/Mos Def/The New Danger'
p478
aS'/Users/pallotron/Music/iTunes/iTunes Media/Music/Soft Machine/I - II'
p479
aS"/Users/pallotron/Music/iTunes/iTunes Media/Music/Eraldo Bernocchi & Harold Budd/Music for 'Fragments From the Inside'"
p480
aS'/Users/pallotron/Music/iTunes/iTunes Media/Music/Franco Battiato/Fisiognomica'
p481
aS'/Users/pallotron/Music/iTunes/iTunes Media/Music/Pink Floyd/More'
p482
aS'/Users/pallotron/Music/iTunes/iTunes Media/Music/Bibio/Ambivalence Avenue'
p483
aS'/Users/pallotron/Music/iTunes/iTunes Media/Music/Neffa feat. Deda & Al Castellana/107 elementi'
p484
aS'/Users/pallotron/Music/iTunes/iTunes Media/Music/Rod Modell/Incense & Black Light'
p485
aS'/Users/pallotron/Music/iTunes/iTunes Media/Music/R.E.M_/Green'
p486
aS'/Users/pallotron/Music/iTunes/iTunes Media/Music/Radiohead/Go To Sleep (CD2)'
p487
aS'/Users/pallotron/Music/iTunes/iTunes Media/Music/R.E.M_/Out of Time'
p488
aS'/Users/pallotron/Music/iTunes/iTunes Media/Music/Fela Anikulapo Kuti & Egypt 80/ODOO (Overtake Don Overtake Overtake)'
p489
aS'/Users/pallotron/Music/iTunes/iTunes Media/Music/Frank Zappa/Live In New York - Cd 2'
p490
aS'/Users/pallotron/Music/iTunes/iTunes Media/Music/Bonobo/Solid Steel Presents Bonobo_ It Came From the Sea'
p491
aS'/Users/pallotron/Music/iTunes/iTunes Media/Music/Pontiak/Maker'
p492
aS'/Volumes/pallotron/Desktop/Music/Bonobo/Solid Steel Presents_ It Came from the S'
p493
aS'/Users/pallotron/Music/iTunes/iTunes Media/Music/Franco Battiato/Come un cammello in una grondaia'
p494
aS'/Users/pallotron/Music/iTunes/iTunes Media/Music/Elio e le Storie Tese/Esco dal mio corpo e ho molta paura (Gli inediti 1979-1986)'
p495
aS'/Users/pallotron/Music/iTunes/iTunes Media/Music/Brothers in Sound/Family Is for Sharing'
p496
aS'/Users/pallotron/Music/iTunes/iTunes Media/Music/Elio e le Storie Tese/Nessuno allo stadio'
p497
aS'/Users/pallotron/Music/iTunes/iTunes Media/Music/Frank Zappa/Waka_Jawaka'
p498
aS'/Users/pallotron/Music/iTunes/iTunes Media/Music/Medeski Martin & Wood/Shack-Man'
p499
aS'/Users/pallotron/Music/iTunes/iTunes Media/Music/Fabio Orsi/Winterreise'
p500
aS'/Users/pallotron/Music/iTunes/iTunes Media/Music/Giuliano Palma & The Bluebeaters/The Wonderful Live'
p501
aS'/Users/pallotron/Music/iTunes/iTunes Media/Music/The Who/My Generation - The Very Best'
p502
aS'/Users/pallotron/Music/iTunes/iTunes Media/Music/The Who/Who_s Next'
p503
aS'/Users/pallotron/Music/iTunes/iTunes Media/Music/Soft Machine/IV'
p504
aS'/Users/pallotron/Music/iTunes/iTunes Media/Music/Caparezza/Le dimensioni del mio caos'
p505
aS'/Users/pallotron/Music/iTunes/iTunes Media/Music/Soft Machine/Third'
p506
aS'/Users/pallotron/Music/iTunes/iTunes Media/Music/Can/Ege Bamyasi'
p507
aS'/Users/pallotron/Music/iTunes/iTunes Media/Music/Balmorhea/Constellations'
p508
aS'/Users/pallotron/Music/iTunes/iTunes Media/Music/Pink Floyd/The Early Singles'
p509
aS'/Users/pallotron/Music/iTunes/iTunes Media/Music/Led Zeppelin/Led Zeppelin III'
p510
aS'/Users/pallotron/Music/iTunes/iTunes Media/Music/Solid Steel Presents_ Bonobo/Solid Steel Presents_ It Came from the Sea [Us Import]'
p511
aS'/Users/pallotron/Music/iTunes/iTunes Media/Music/Pink Floyd/A Saucerful of Secrets'
p512
aS'/Users/pallotron/Music/iTunes/iTunes Media/Music/Anastasio, Trey/Plasma (2 of 2)'
p513
aS'/Users/pallotron/Music/iTunes/iTunes Media/Music/Dream Theater/Images And Word'
p514
aS'/Users/pallotron/Music/iTunes/iTunes Media/Music/Robert Wyatt/Ruth Is Stranger Than Richard'
p515
aS'/Users/pallotron/Music/iTunes/iTunes Media/Music/Franco Battiato/Gommalacca'
p516
aS"/Users/pallotron/Music/iTunes/iTunes Media/Music/Franco Battiato/L'ombrello e la macchina da cucire"
p517
aS'/Users/pallotron/Music/iTunes/iTunes Media/Music/Sonic Youth/Daydream Nation'
p518
aS'/Users/pallotron/Music/iTunes/iTunes Media/Music/Neil Young/Everybody Knows This Is Nowhere'
p519
aS'/Users/pallotron/Music/iTunes/iTunes Media/Music/Tom Waits/Beautiful Maladies'
p520
aS'/Users/pallotron/Music/iTunes/iTunes Media/Music/Barrington Levy/Here I Come'
p521
aS'/Users/pallotron/Music/iTunes/iTunes Media/Music/Colle der fomento/Scienza doppia H'
p522
aS'/Users/pallotron/Music/iTunes/iTunes Media/Music/Nicola Conte/Other Directions'
p523
aS"/Users/pallotron/Music/iTunes/iTunes Media/Music/Marvin Gaye/What's Going On (Extra Tracks) [Original Recording Remastered]"
p524
aS'/Users/pallotron/Music/iTunes/iTunes Media/Music/Led Zeppelin/BBC Sessions (Disc 1)'
p525
aS'/Users/pallotron/Music/iTunes/iTunes Media/Music/Compilations/Lagos Shake_ A Tony Allen Chop Up'
p526
aS'/Users/pallotron/Music/iTunes/iTunes Media/Music/Gentle Giant/Giant'
p527
aS'/Users/pallotron/Music/iTunes/iTunes Media/Music/Vinicio Capossela/Camera a sud'
p528
aS'/Users/pallotron/Music/iTunes/iTunes Media/Music/Capleton/More Fire'
p529
aS'/Users/pallotron/Music/iTunes/iTunes Media/Music/Role Model/A New Fragrance'
p530
aS'/Users/pallotron/Music/iTunes/iTunes Media/Music/Radiohead/High & Dry (CD1)'
p531
aS'/Users/pallotron/Music/iTunes/iTunes Media/Music/Bluvertigo/Acidi e basi'
p532
aS'/Users/pallotron/Music/iTunes/iTunes Media/Music/Bob Marley & The Wailers/Catch a Fire'
p533
aS'/Users/pallotron/Music/iTunes/iTunes Media/Music/Mats & Morgan/On Air with Guest'
p534
aS'/Users/pallotron/Music/iTunes/iTunes Media/Music/Pink Floyd/The Wall'
p535
aS'/Users/pallotron/Music/iTunes/iTunes Media/Music/Ennio Morricone/The Legend of 1900'
p536
aS'/Users/pallotron/Music/iTunes/iTunes Media/Music/Robert Wyatt/Comicopera'
p537
aS'/Users/pallotron/Music/iTunes/iTunes Media/Music/John Martyn/Bless the Weather'
p538
aS'/Users/pallotron/Music/iTunes/iTunes Media/Music/Captain Beefheart & His Magic Band/London 1974'
p539
aS'/Users/pallotron/Music/iTunes/iTunes Media/Music/Antony & The Johnsons/The Crying Light'
p540
aS'/Users/pallotron/Music/iTunes/iTunes Media/Music/Neil Young & Crazy Horse/Zuma'
p541
aS'/Users/pallotron/Music/iTunes/iTunes Media/Music/Vinicio Capossela/Il ballo di S.Vito'
p542
aS'/Users/pallotron/Music/iTunes/iTunes Media/Music/Sottotono/Sotto effetto stono'
p543
aS'/Users/pallotron/Music/iTunes/iTunes Media/Music/Can/Tago Mago'
p544
aS'/Users/pallotron/Music/iTunes/iTunes Media/Music/Radiohead/Pyramid Song (CD1)'
p545
aS'/Users/pallotron/Music/iTunes/iTunes Media/Music/Gente Guasta/La grande truffa del rap'
p546
aS'/Users/pallotron/Music/iTunes/iTunes Media/Music/Jacaszek/Treny'
p547
aS'/Users/pallotron/Music/iTunes/iTunes Media/Music/Moritz Von Oswald Trio/Vertical Ascent'
p548
aS'/Users/pallotron/Music/iTunes/iTunes Media/Music/Samla Mammas Manna/Klossa Knapitatet'
p549
aS'/Users/pallotron/Music/iTunes/iTunes Media/Music/Garage a Trois/Emphasizer'
p550
aS'/Users/pallotron/Music/iTunes/iTunes Media/Music/Johnny Cash/The Best of Johnny Cash'
p551
aS'/Users/pallotron/Music/iTunes/iTunes Media/Music/Elio e le Storie Tese/Cicciput'
p552
aS'/Users/pallotron/Music/iTunes/iTunes Media/Music/Analog Pussy/Psycho Bitch From Hell'
p553
aS'/Users/pallotron/Music/iTunes/iTunes Media/Music/Four Tet/There Is Love in You'
p554
aS'/Users/pallotron/Music/iTunes/iTunes Media/Music/Radiohead/Live in NY 2000'
p555
aS'/Volumes/pallotron/Desktop/Music/Bonobo/Live Sessions'
p556
aS'/Users/pallotron/Music/iTunes/iTunes Media/Music/Neil Young & Crazy Horse/Everybody Knows This Is Nowhere'
p557
aS'/Users/pallotron/Music/iTunes/iTunes Media/Music/Pink Floyd/The Division Bell'
p558
aS'/Users/pallotron/Music/iTunes/iTunes Media/Music/Pink Floyd/The Final Cut'
p559
aS'/Users/pallotron/Music/iTunes/iTunes Media/Music/R.E.M_/New Adventures in Hi-Fi'
p560
aS'/Users/pallotron/Music/iTunes/iTunes Media/Music/Wu\xe2\x80\x90Tang Clan/Wu-Tang Forever'
p561
aS'/Users/pallotron/Music/iTunes/iTunes Media/Music/Mogwai/Rock Action'
p562
aS'/Users/pallotron/Music/iTunes/iTunes Media/Music/Karate/Karate'
p563
aS'/Users/pallotron/Music/iTunes/iTunes Media/Music/Radiohead/Airbag_How Am I Driving_ [EP]'
p564
aS'/Users/pallotron/Music/iTunes/iTunes Media/Music/A\xcc\x81stor Piazzolla/Tanguedia'
p565
aS'/Users/pallotron/Music/iTunes/iTunes Media/Music/Led Zeppelin/Led Zeppelin I'
p566
aS'/Users/pallotron/Music/iTunes/iTunes Media/Music/Pink Floyd/Piper at the Gates of Dawn'
p567
aS'/Users/pallotron/Music/iTunes/iTunes Media/Music/David Bowie/Heroes'
p568
aS'/Users/pallotron/Music/iTunes/iTunes Media/Music/Pink Floyd/Wish You Were Here'
p569
aS'/Users/pallotron/Music/iTunes/iTunes Media/Music/Prodigy/More Music For The Jilted Generation'
p570
aS'/Users/pallotron/Music/iTunes/iTunes Media/Music/Gentle Giant/Octopus'
p571
aS'/Users/pallotron/Music/iTunes/iTunes Media/Music/Elio e le Storie Tese/Eat the phikis'
p572
aS'/Users/pallotron/Music/iTunes/iTunes Media/Music/Frank Zappa/Everything Is Healing Nicely'
p573
aS'/Users/pallotron/Music/iTunes/iTunes Media/Music/The xx/xx'
p574
aS'/Users/pallotron/Music/iTunes/iTunes Media/Music/Cream/Disraeli Gears'
p575
aS'/Users/pallotron/Music/iTunes/iTunes Media/Music/Dire Straits/Money for Nothing'
p576
aS'/Users/pallotron/Music/iTunes/iTunes Media/Music/Dream Theater/Images and Words'
p577
aS'/Users/pallotron/Music/iTunes/iTunes Media/Music/Explosions in the Sky/Those Who Tell the Truth Shall Die, Those Who Tell the Truth Shall Live Forever'
p578
aS'/Volumes/pallotron/Desktop/Music/Bonobo/Dial _M_ for Monkey'
p579
aS'/Users/pallotron/Music/iTunes/iTunes Media/Music/Franco Battiato/Messa Arcaica'
p580
aS'/Users/pallotron/Music/iTunes/iTunes Media/Music/Can/Saw Delight'
p581
aS'/Users/pallotron/Music/iTunes/iTunes Media/Music/Franco Battiato/Fleurs'
p582
aS'/Users/pallotron/Music/iTunes/iTunes Media/Music/Radiohead/Just (CD2)'
p583
aS'/Users/pallotron/Music/iTunes/iTunes Media/Music/Chicago Transit Authority/The Chicago Transit Authority'
p584
aS'/Users/pallotron/Music/iTunes/iTunes Media/Music/Gorillaz/Demon Days'
p585
aS'/Users/pallotron/Music/iTunes/iTunes Media/Music/Gown/Broken Bones'
p586
aS'/Users/pallotron/Music/iTunes/iTunes Media/Music/Radiohead/Airbag _ How Am I Driving_'
p587
aS'/Users/pallotron/Music/iTunes/iTunes Media/Music/Medeski Martin & Wood/Combustication'
p588
aS'/Users/pallotron/Music/iTunes/iTunes Media/Music/Robert Wyatt & Friends/Theatre Royal Drury Lane 8.09.1974'
p589
aS'/Users/pallotron/Music/iTunes/iTunes Media/Music/The Cure/Kiss Me Kiss Me Kiss Me'
p590
aS'/Users/pallotron/Music/iTunes/iTunes Media/Music/Gentle Giant/Three Friends'
p591
aS'/Users/pallotron/Music/iTunes/iTunes Media/Music/Tom Waits/The Early Years, Volume 1'
p592
aS'/Users/pallotron/Music/iTunes/iTunes Media/Music/The Doors/The Best Of'
p593
aS'/Users/pallotron/Music/iTunes/iTunes Media/Music/The Brandt Brauer Frick Ensemble/Mr. Machine'
p594
aS'/Users/pallotron/Music/iTunes/iTunes Media/Music/Oren Ambarchi/Intermission 2000-2008'
p595
aS'/Users/pallotron/Music/iTunes/iTunes Media/Music/Franco Battiato/Battiato non Battiato'
p596
aS'/Users/pallotron/Music/iTunes/iTunes Media/Music/Wu-Tang Clan/Wu-Tang Forever (disc 2)'
p597
aS'/Users/pallotron/Music/iTunes/iTunes Media/Music/Compilations/Ethiopiques 4_ Ethio Jazz & Musique Instrumentale, 1969-1974'
p598
aS'/Users/pallotron/Music/iTunes/iTunes Media/Music/Sigur Ro\xcc\x81s/( )'
p599
aS'/Users/pallotron/Music/iTunes/iTunes Media/Music/Compilations/End Titles\xe2\x80\xa6 Stories for Film'
p600
aS'/Users/pallotron/Music/iTunes/iTunes Media/Music/Denzel And Huhn/Paraport'
p601
aS'/Users/pallotron/Music/iTunes/iTunes Media/Music/Karate/In Place Ot Real Insight'
p602
aS'/Users/pallotron/Music/iTunes/iTunes Media/Music/Franco Battiato/La Convenzione'
p603
aS'/Users/pallotron/Music/iTunes/iTunes Media/Music/Franco Battiato/Fleurs 3'
p604
aS'/Users/pallotron/Music/iTunes/iTunes Media/Music/Betty Davis/Nasty Gal'
p605
aS'/Users/pallotron/Music/iTunes/iTunes Media/Music/Radiohead/Pyramid Song (CD2)'
p606
aS'/Users/pallotron/Music/iTunes/iTunes Media/Music/The Jimi Hendrix Experience/Are You Experienced'
p607
aS'/Users/pallotron/Music/iTunes/iTunes Media/Music/Infected Mushroom/Birthday'
p608
aS'/Users/pallotron/Paul Oakenfold - Four Seasons (Inspiron)'
p609
aS'/Users/pallotron/Music/iTunes/iTunes Media/Music/Radiohead/Live @ BBC'
p610
aS'/Users/pallotron/Music/iTunes/iTunes Media/Music/Wu-Tang Clan/Enter The Wu-Tang (36 Chambers)'
p611
aS"/Users/pallotron/Music/iTunes/iTunes Media/Music/Gong/Radio Gnome Invisible Part 2_ Angel's Egg"
p612
aS'/Users/pallotron/Music/iTunes/iTunes Media/Music/Fritz da Cat/Novecinquanta'
p613
aS'/Users/pallotron/Music/iTunes/iTunes Media/Music/R.E.M_/Up'
p614
aS'/Users/pallotron/Music/iTunes/iTunes Media/Music/Beach House/Teen Dream'
p615
aS'/Users/pallotron/Music/iTunes/iTunes Media/Music/Iva Bittova\xcc\x81 & Vladimi\xcc\x81r Va\xcc\x81clavek/Bi\xcc\x81le\xcc\x81 inferno (disc 2)'
p616
aS'/Users/pallotron/Music/iTunes/iTunes Media/Music/Franco Battiato/Voli imprevedibili'
p617
aS'/Users/pallotron/Music/iTunes/iTunes Media/Music/Kruder & Dorfmeister/The K&D Sessions - Part Two'
p618
aS'/Users/pallotron/Music/iTunes/iTunes Media/Music/Peter Tosh/Scrolls of the Prophet_ The Best of Peter Tosh'
p619
aS'/Users/pallotron/Music/iTunes/iTunes Media/Music/Francesco De Gregori/Pezzi'
p620
aS'/Users/pallotron/Music/iTunes/iTunes Media/Music/The Doors/Strange Days'
p621
aS'/Users/pallotron/Music/iTunes/iTunes Media/Music/Medeski Martin and Wood/Combustication'
p622
aS'/Users/pallotron/Music/iTunes/iTunes Media/Music/Elio e le Storie Tese/Elio E Le Storie Tese'
p623
aS'/Users/pallotron/Music/iTunes/iTunes Media/Music/Radiohead/Hail to the Thief'
p624
aS'/Users/pallotron/Music/iTunes/iTunes Media/Music/Frank Zappa/You Are What You Is'
p625
aS'/Users/pallotron/Music/iTunes/iTunes Media/Music/Mahavishnu Orchestra/Birds of Fire'
p626
aS'/Users/pallotron/Music/iTunes/iTunes Media/Music/Pink Floyd/Relics'
p627
aS'/Users/pallotron/Music/iTunes/iTunes Media/Music/Donny Hathaway/Extension of a Man'
p628
aS'/Users/pallotron/Music/iTunes/iTunes Media/Music/Lawrence English/Lawrence English - A Colour for Autumn'
p629
aS'/Users/pallotron/Music/iTunes/iTunes Media/Music/Franco Battiato/M.elle Le Gladiator'
p630
aS'/Users/pallotron/Music/iTunes/iTunes Media/Music/Soft Machine/III'
p631
aS'/Users/pallotron/Music/iTunes/iTunes Media/Music/Gentle Giant/Gentle Giant'
p632
aS'/Users/pallotron/Music/iTunes/iTunes Media/Music/Theo Parrish/Parallel Dimensions'
p633
aS"/Users/pallotron/Music/iTunes/iTunes Media/Music/Bobby ''Boris'' Pickett & The Crypt-Kickers/The Original Monster Mash"
p634
aS'/Users/pallotron/Music/iTunes/iTunes Media/Music/Frank Zappa/Chunga_s Revenge'
p635
aS'/Users/pallotron/Music/iTunes/iTunes Media/Music/Karate/The Bed Is in the Ocean'
p636
aS'/Users/pallotron/Music/iTunes/iTunes Media/Music/Jethro Tull/Aqualung'
p637
aS'/Users/pallotron/Music/iTunes/iTunes Media/Music/Gentle Giant/Free Hand'
p638
aS'/Users/pallotron/Music/iTunes/iTunes Media/Music/Bonobo/Dial _M_ for Monkey'
p639
aS'/Users/pallotron/Music/iTunes/iTunes Media/Music/Radiohead/Go to Sleep'
p640
atp641
Rp642
sS'tagprogress'
p643
(dp644
s.